target datalayout = "e-m:e-p270:32:32-p271:32:32-p272:64:64-i64:64-i128:128-f80:128-n8:16:32:64-S128"
target triple = "x86_64-unknown-linux-gnu"

%struct.OptsVisitor = type { %struct.Visitor, ptr, i32, ptr, i32, ptr, %union.anon, %union.anon, ptr }
%struct.Visitor = type { ptr, ptr, ptr, ptr, ptr, ptr, ptr, ptr, ptr, ptr, ptr, ptr, ptr, ptr, ptr, ptr, ptr, ptr, ptr, ptr, i32, %struct.CompatPolicy, ptr, ptr }
%struct.CompatPolicy = type { i8, i32, i8, i32, i8, i32, i8, i32 }
%union.anon = type { i64 }
%struct.QTailQLink = type { ptr, ptr }
%struct.QemuOpt = type { ptr, ptr, ptr, %union.anon.2, ptr, %union.anon.3 }
%union.anon.2 = type { i64 }
%union.anon.3 = type { %struct.QTailQLink }

; Function Attrs: nounwind sspstrong uwtable
define internal ptr @to_ov(ptr noundef %v) #0 {
entry:
  %v.addr = alloca ptr, align 8
  %__mptr = alloca ptr, align 8
  %tmp = alloca ptr, align 8
  store ptr %v, ptr %v.addr, align 8
  %0 = load ptr, ptr %v.addr, align 8
  store ptr %0, ptr %__mptr, align 8
  %1 = load ptr, ptr %__mptr, align 8
  %add.ptr = getelementptr i8, ptr %1, i64 0
  store ptr %add.ptr, ptr %tmp, align 8
  %2 = load ptr, ptr %tmp, align 8
  ret ptr %2
}

; Function Attrs: nounwind sspstrong uwtable
define internal void @opts_end_struct(ptr noundef %v, ptr noundef %obj) #0 {
entry:
  %v.addr = alloca ptr, align 8
  %obj.addr = alloca ptr, align 8
  %ov = alloca ptr, align 8
  store ptr %v, ptr %v.addr, align 8
  store ptr %obj, ptr %obj.addr, align 8
  %0 = load ptr, ptr %v.addr, align 8
  %call = call ptr @to_ov(ptr noundef %0)
  store ptr %call, ptr %ov, align 8
  %1 = load ptr, ptr %ov, align 8
  %depth = getelementptr inbounds %struct.OptsVisitor, ptr %1, i32 0, i32 2
  %2 = load i32, ptr %depth, align 8
  %dec = add i32 %2, -1
  store i32 %dec, ptr %depth, align 8
  %cmp = icmp ugt i32 %dec, 0
  br i1 %cmp, label %if.then, label %if.end

if.then:                                          ; preds = %entry
  br label %return

if.end:                                           ; preds = %entry
  %3 = load ptr, ptr %ov, align 8
  %unprocessed_opts = getelementptr inbounds %struct.OptsVisitor, ptr %3, i32 0, i32 3
  %4 = load ptr, ptr %unprocessed_opts, align 8
  call void @g_hash_table_destroy(ptr noundef %4)
  %5 = load ptr, ptr %ov, align 8
  %unprocessed_opts1 = getelementptr inbounds %struct.OptsVisitor, ptr %5, i32 0, i32 3
  store ptr null, ptr %unprocessed_opts1, align 8
  %6 = load ptr, ptr %ov, align 8
  %fake_id_opt = getelementptr inbounds %struct.OptsVisitor, ptr %6, i32 0, i32 8
  %7 = load ptr, ptr %fake_id_opt, align 8
  %tobool = icmp ne ptr %7, null
  br i1 %tobool, label %if.then2, label %if.end6

if.then2:                                         ; preds = %if.end
  %8 = load ptr, ptr %ov, align 8
  %fake_id_opt3 = getelementptr inbounds %struct.OptsVisitor, ptr %8, i32 0, i32 8
  %9 = load ptr, ptr %fake_id_opt3, align 8
  %name = getelementptr inbounds %struct.QemuOpt, ptr %9, i32 0, i32 0
  %10 = load ptr, ptr %name, align 8
  call void @g_free(ptr noundef %10)
  %11 = load ptr, ptr %ov, align 8
  %fake_id_opt4 = getelementptr inbounds %struct.OptsVisitor, ptr %11, i32 0, i32 8
  %12 = load ptr, ptr %fake_id_opt4, align 8
  %str = getelementptr inbounds %struct.QemuOpt, ptr %12, i32 0, i32 1
  %13 = load ptr, ptr %str, align 8
  call void @g_free(ptr noundef %13)
  %14 = load ptr, ptr %ov, align 8
  %fake_id_opt5 = getelementptr inbounds %struct.OptsVisitor, ptr %14, i32 0, i32 8
  %15 = load ptr, ptr %fake_id_opt5, align 8
  call void @g_free(ptr noundef %15)
  br label %if.end6

if.end6:                                          ; preds = %if.then2, %if.end
  %16 = load ptr, ptr %ov, align 8
  %fake_id_opt7 = getelementptr inbounds %struct.OptsVisitor, ptr %16, i32 0, i32 8
  store ptr null, ptr %fake_id_opt7, align 8
  br label %return

return:                                           ; preds = %if.end6, %if.then
  ret void
}