; Function Attrs: nounwind sspstrong uwtable
define internal void @opts_end_struct(ptr noundef captures(none) %v, ptr readnone captures(none) %obj) #0 {
entry:
  %depth = getelementptr inbounds nuw i8, ptr %v, i64 224
  %0 = load i32, ptr %depth, align 8
  %dec = add i32 %0, -1
  store i32 %dec, ptr %depth, align 8
  %cmp.not = icmp eq i32 %dec, 0
  br i1 %cmp.not, label %if.end, label %return

if.end:                                           ; preds = %entry
  %unprocessed_opts = getelementptr inbounds nuw i8, ptr %v, i64 232
  %1 = load ptr, ptr %unprocessed_opts, align 8
  tail call void @g_hash_table_destroy(ptr noundef %1) #10
  store ptr null, ptr %unprocessed_opts, align 8
  %fake_id_opt = getelementptr inbounds nuw i8, ptr %v, i64 272
  %2 = load ptr, ptr %fake_id_opt, align 8
  %tobool.not = icmp eq ptr %2, null
  br i1 %tobool.not, label %if.end6, label %if.then2

if.then2:                                         ; preds = %if.end
  %3 = load ptr, ptr %2, align 8
  tail call void @g_free(ptr noundef %3) #10
  %4 = load ptr, ptr %fake_id_opt, align 8
  %str = getelementptr inbounds nuw i8, ptr %4, i64 8
  %5 = load ptr, ptr %str, align 8
  tail call void @g_free(ptr noundef %5) #10
  %6 = load ptr, ptr %fake_id_opt, align 8
  tail call void @g_free(ptr noundef %6) #10
  br label %if.end6

if.end6:                                          ; preds = %if.then2, %if.end
  store ptr null, ptr %fake_id_opt, align 8
  br label %return

return:                                           ; preds = %entry, %if.end6
  ret void
}